target datalayout = "e-m:e-p270:32:32-p271:32:32-p272:64:64-i64:64-i128:128-f80:128-n8:16:32:64-S128"
target triple = "x86_64-pc-linux-gnu"

; Function Attrs: nounwind uwtable
define float @TextToFloat(ptr noundef %0) #0 {
  %2 = alloca ptr, align 8
  %3 = alloca float, align 4
  %4 = alloca float, align 4
  %5 = alloca i32, align 4
  %6 = alloca float, align 4
  store ptr %0, ptr %2, align 8
  call void @llvm.lifetime.start.p0(i64 4, ptr %3) #13
  store float 0.000000e+00, ptr %3, align 4
  call void @llvm.lifetime.start.p0(i64 4, ptr %4) #13
  store float 1.000000e+00, ptr %4, align 4
  %7 = load ptr, ptr %2, align 8
  %8 = getelementptr inbounds i8, ptr %7, i64 0
  %9 = load i8, ptr %8, align 1
  %10 = sext i8 %9 to i32
  %11 = icmp eq i32 %10, 43
  br i1 %11, label %18, label %12

12:                                               ; preds = %1
  %13 = load ptr, ptr %2, align 8
  %14 = getelementptr inbounds i8, ptr %13, i64 0
  %15 = load i8, ptr %14, align 1
  %16 = sext i8 %15 to i32
  %17 = icmp eq i32 %16, 45
  br i1 %17, label %18, label %28

18:                                               ; preds = %12, %1
  %19 = load ptr, ptr %2, align 8
  %20 = getelementptr inbounds i8, ptr %19, i64 0
  %21 = load i8, ptr %20, align 1
  %22 = sext i8 %21 to i32
  %23 = icmp eq i32 %22, 45
  br i1 %23, label %24, label %25

24:                                               ; preds = %18
  store float -1.000000e+00, ptr %4, align 4
  br label %25

25:                                               ; preds = %24, %18
  %26 = load ptr, ptr %2, align 8
  %27 = getelementptr inbounds nuw i8, ptr %26, i32 1
  store ptr %27, ptr %2, align 8
  br label %28

28:                                               ; preds = %25, %12
  call void @llvm.lifetime.start.p0(i64 4, ptr %5) #13
  store i32 0, ptr %5, align 4
  br label %29

29:                                               ; preds = %58, %28
  %30 = load ptr, ptr %2, align 8
  %31 = load i32, ptr %5, align 4
  %32 = sext i32 %31 to i64
  %33 = getelementptr inbounds i8, ptr %30, i64 %32
  %34 = load i8, ptr %33, align 1
  %35 = sext i8 %34 to i32
  %36 = icmp sge i32 %35, 48
  br i1 %36, label %37, label %45

37:                                               ; preds = %29
  %38 = load ptr, ptr %2, align 8
  %39 = load i32, ptr %5, align 4
  %40 = sext i32 %39 to i64
  %41 = getelementptr inbounds i8, ptr %38, i64 %40
  %42 = load i8, ptr %41, align 1
  %43 = sext i8 %42 to i32
  %44 = icmp sle i32 %43, 57
  br label %45

45:                                               ; preds = %37, %29
  %46 = phi i1 [ false, %29 ], [ %44, %37 ]
  br i1 %46, label %47, label %61

47:                                               ; preds = %45
  %48 = load float, ptr %3, align 4
  %49 = load ptr, ptr %2, align 8
  %50 = load i32, ptr %5, align 4
  %51 = sext i32 %50 to i64
  %52 = getelementptr inbounds i8, ptr %49, i64 %51
  %53 = load i8, ptr %52, align 1
  %54 = sext i8 %53 to i32
  %55 = sub nsw i32 %54, 48
  %56 = sitofp i32 %55 to float
  %57 = call float @llvm.fmuladd.f32(float %48, float 1.000000e+01, float %56)
  store float %57, ptr %3, align 4
  br label %58

58:                                               ; preds = %47
  %59 = load i32, ptr %5, align 4
  %60 = add nsw i32 %59, 1
  store i32 %60, ptr %5, align 4
  br label %29

61:                                               ; preds = %45
  %62 = load ptr, ptr %2, align 8
  %63 = load i32, ptr %5, align 4
  %64 = add nsw i32 %63, 1
  store i32 %64, ptr %5, align 4
  %65 = sext i32 %63 to i64
  %66 = getelementptr inbounds i8, ptr %62, i64 %65
  %67 = load i8, ptr %66, align 1
  %68 = sext i8 %67 to i32
  %69 = icmp eq i32 %68, 46
  br i1 %69, label %70, label %108

70:                                               ; preds = %61
  call void @llvm.lifetime.start.p0(i64 4, ptr %6) #13
  store float 1.000000e+01, ptr %6, align 4
  br label %71

71:                                               ; preds = %104, %70
  %72 = load ptr, ptr %2, align 8
  %73 = load i32, ptr %5, align 4
  %74 = sext i32 %73 to i64
  %75 = getelementptr inbounds i8, ptr %72, i64 %74
  %76 = load i8, ptr %75, align 1
  %77 = sext i8 %76 to i32
  %78 = icmp sge i32 %77, 48
  br i1 %78, label %79, label %87

79:                                               ; preds = %71
  %80 = load ptr, ptr %2, align 8
  %81 = load i32, ptr %5, align 4
  %82 = sext i32 %81 to i64
  %83 = getelementptr inbounds i8, ptr %80, i64 %82
  %84 = load i8, ptr %83, align 1
  %85 = sext i8 %84 to i32
  %86 = icmp sle i32 %85, 57
  br label %87

87:                                               ; preds = %79, %71
  %88 = phi i1 [ false, %71 ], [ %86, %79 ]
  br i1 %88, label %89, label %107

89:                                               ; preds = %87
  %90 = load ptr, ptr %2, align 8
  %91 = load i32, ptr %5, align 4
  %92 = sext i32 %91 to i64
  %93 = getelementptr inbounds i8, ptr %90, i64 %92
  %94 = load i8, ptr %93, align 1
  %95 = sext i8 %94 to i32
  %96 = sub nsw i32 %95, 48
  %97 = sitofp i32 %96 to float
  %98 = load float, ptr %6, align 4
  %99 = fdiv float %97, %98
  %100 = load float, ptr %3, align 4
  %101 = fadd float %100, %99
  store float %101, ptr %3, align 4
  %102 = load float, ptr %6, align 4
  %103 = fmul float %102, 1.000000e+01
  store float %103, ptr %6, align 4
  br label %104

104:                                              ; preds = %89
  %105 = load i32, ptr %5, align 4
  %106 = add nsw i32 %105, 1
  store i32 %106, ptr %5, align 4
  br label %71

107:                                              ; preds = %87
  call void @llvm.lifetime.end.p0(i64 4, ptr %6) #13
  br label %108

108:                                              ; preds = %107, %61
  %109 = load float, ptr %3, align 4
  %110 = load float, ptr %4, align 4
  %111 = fmul float %109, %110
  call void @llvm.lifetime.end.p0(i64 4, ptr %5) #13
  call void @llvm.lifetime.end.p0(i64 4, ptr %4) #13
  call void @llvm.lifetime.end.p0(i64 4, ptr %3) #13
  ret float %111
}