; Function Attrs: nofree norecurse nosync nounwind memory(argmem: read) uwtable
define float @TextToFloat(ptr noundef readonly captures(none) %0) local_unnamed_addr #22 {
  %2 = load i8, ptr %0, align 1
  switch i8 %2, label %6 [
    i8 43, label %3
    i8 45, label %3
  ]

3:                                                ; preds = %1, %1
  %4 = icmp eq i8 %2, 45
  %.129 = select i1 %4, float -1.000000e+00, float 1.000000e+00
  %5 = getelementptr inbounds nuw i8, ptr %0, i64 1
  %.pre = load i8, ptr %5, align 1
  br label %6

6:                                                ; preds = %1, %3
  %7 = phi i8 [ %.pre, %3 ], [ %2, %1 ]
  %.032 = phi ptr [ %5, %3 ], [ %0, %1 ]
  %.028 = phi float [ %.129, %3 ], [ 1.000000e+00, %1 ]
  %8 = add i8 %7, -48
  %or.cond38 = icmp ult i8 %8, 10
  br i1 %or.cond38, label %.lr.ph, label %.critedge

.lr.ph:                                           ; preds = %6, %.lr.ph
  %indvars.iv = phi i64 [ %indvars.iv.next, %.lr.ph ], [ 0, %6 ]
  %9 = phi i8 [ %13, %.lr.ph ], [ %7, %6 ]
  %.03039 = phi float [ %11, %.lr.ph ], [ 0.000000e+00, %6 ]
  %narrow36 = add nsw i8 %9, -48
  %10 = uitofp nneg i8 %narrow36 to float
  %11 = tail call float @llvm.fmuladd.f32(float %.03039, float 1.000000e+01, float %10)
  %indvars.iv.next = add nuw nsw i64 %indvars.iv, 1
  %12 = getelementptr inbounds nuw i8, ptr %.032, i64 %indvars.iv.next
  %13 = load i8, ptr %12, align 1
  %14 = add i8 %13, -48
  %or.cond = icmp ult i8 %14, 10
  br i1 %or.cond, label %.lr.ph, label %.critedge.loopexit

.critedge.loopexit:                               ; preds = %.lr.ph
  %15 = trunc nuw nsw i64 %indvars.iv.next to i32
  br label %.critedge

.critedge:                                        ; preds = %.critedge.loopexit, %6
  %.030.lcssa = phi float [ 0.000000e+00, %6 ], [ %11, %.critedge.loopexit ]
  %.027.lcssa = phi i32 [ 0, %6 ], [ %15, %.critedge.loopexit ]
  %.lcssa = phi i8 [ %7, %6 ], [ %13, %.critedge.loopexit ]
  %16 = icmp eq i8 %.lcssa, 46
  br i1 %16, label %.preheader, label %.critedge2

.preheader:                                       ; preds = %.critedge
  %17 = sext i32 %.027.lcssa to i64
  %18 = getelementptr i8, ptr %.032, i64 %17
  %19 = getelementptr i8, ptr %18, i64 1
  %20 = load i8, ptr %19, align 1
  %21 = add i8 %20, -48
  %or.cond3744 = icmp ult i8 %21, 10
  br i1 %or.cond3744, label %.lr.ph48.preheader, label %.critedge2

.lr.ph48.preheader:                               ; preds = %.preheader
  %22 = zext nneg i32 %.027.lcssa to i64
  %23 = add nuw nsw i64 %22, 1
  br label %.lr.ph48

.lr.ph48:                                         ; preds = %.lr.ph48.preheader, %.lr.ph48
  %indvars.iv54 = phi i64 [ %23, %.lr.ph48.preheader ], [ %indvars.iv.next55, %.lr.ph48 ]
  %24 = phi i8 [ %20, %.lr.ph48.preheader ], [ %30, %.lr.ph48 ]
  %.046 = phi float [ 1.000000e+01, %.lr.ph48.preheader ], [ %28, %.lr.ph48 ]
  %.245 = phi float [ %.030.lcssa, %.lr.ph48.preheader ], [ %27, %.lr.ph48 ]
  %narrow = add nsw i8 %24, -48
  %25 = uitofp nneg i8 %narrow to float
  %26 = fdiv float %25, %.046
  %27 = fadd float %.245, %26
  %28 = fmul float %.046, 1.000000e+01
  %indvars.iv.next55 = add nuw nsw i64 %indvars.iv54, 1
  %29 = getelementptr inbounds nuw i8, ptr %.032, i64 %indvars.iv.next55
  %30 = load i8, ptr %29, align 1
  %31 = add i8 %30, -48
  %or.cond37 = icmp ult i8 %31, 10
  br i1 %or.cond37, label %.lr.ph48, label %.critedge2

.critedge2:                                       ; preds = %.lr.ph48, %.preheader, %.critedge
  %.131 = phi float [ %.030.lcssa, %.critedge ], [ %.030.lcssa, %.preheader ], [ %27, %.lr.ph48 ]
  %32 = fmul float %.028, %.131
  ret float %32
}